target datalayout = "e-m:e-p270:32:32-p271:32:32-p272:64:64-i64:64-i128:128-f80:128-n8:16:32:64-S128"
target triple = "x86_64-unknown-linux-gnu"

%struct.QTailQLink = type { ptr, ptr }
%struct.QEMUSnapshotInfo = type { [128 x i8], [256 x i8], i64, i32, i32, i64, i64 }
%struct.GraphLockableMainloop = type {}
%struct.BlockDriverState = type { i32, i8, i8, i8, i8, i8, ptr, ptr, ptr, %struct.anon, i8, [4096 x i8], [4096 x i8], [4096 x i8], [16 x i8], ptr, [4096 x i8], %struct.BlockLimits, i32, i32, i32, i32, [32 x i8], %union.anon.0, %union.anon.1, %union.anon.2, i32, [16 x %struct.anon.3], ptr, %struct.anon.4, ptr, ptr, %struct.anon.5, ptr, ptr, i32, ptr, i64, i64, %struct.QemuMutex, %struct.anon.6, %struct.Stat64, i32, i32, i32, i32, i32, i32, %struct.QemuMutex, %struct.anon.7, %struct.CoQueue, i8, i32, i8, %struct.CoMutex, ptr, ptr }
%struct.anon = type { ptr }
%struct.BlockLimits = type { i32, i64, i32, i64, i32, i32, i32, i64, i32, i64, i64, i32, i8, i32, i32, i32, i32, i32, i32, i32 }
%union.anon.0 = type { %struct.QTailQLink }
%union.anon.1 = type { %struct.QTailQLink }
%union.anon.2 = type { %struct.QTailQLink }
%struct.anon.3 = type { ptr }
%struct.anon.4 = type { ptr }
%struct.anon.5 = type { ptr }
%struct.anon.6 = type { ptr }
%struct.Stat64 = type { i64 }
%struct.QemuMutex = type { %union.pthread_mutex_t, i8 }
%union.pthread_mutex_t = type { %struct.__pthread_mutex_s }
%struct.__pthread_mutex_s = type { i32, i32, i32, i32, i32, i16, i16, %struct.__pthread_internal_list }
%struct.__pthread_internal_list = type { ptr, ptr }
%struct.anon.7 = type { ptr }
%struct.CoQueue = type { %struct.anon.8 }
%struct.anon.8 = type { ptr, ptr }
%struct.CoMutex = type { i32, ptr, %struct.anon.9, %struct.anon.9, i32, i32, ptr }
%struct.anon.9 = type { ptr }
%struct._GList = type { ptr, ptr, ptr }

@.str.6 = private unnamed_addr constant [22 x i8] c"qemu_in_main_thread()\00", align 1
@.str.7 = private unnamed_addr constant [25 x i8] c"../qemu/block/snapshot.c\00", align 1
@__PRETTY_FUNCTION__.bdrv_snapshot_find = private unnamed_addr constant [77 x i8] c"int bdrv_snapshot_find(BlockDriverState *, QEMUSnapshotInfo *, const char *)\00", align 1
@__PRETTY_FUNCTION__.bdrv_all_delete_snapshot = private unnamed_addr constant [71 x i8] c"int bdrv_all_delete_snapshot(const char *, _Bool, strList *, Error **)\00", align 1
@.str.22 = private unnamed_addr constant [41 x i8] c"Could not delete snapshot '%s' on '%s': \00", align 1
@__PRETTY_FUNCTION__.bdrv_all_snapshots_includes_bs = private unnamed_addr constant [57 x i8] c"_Bool bdrv_all_snapshots_includes_bs(BlockDriverState *)\00", align 1

; Function Attrs: nounwind sspstrong uwtable
define internal void @graph_lockable_auto_unlock_mainloop(ptr noundef %x) #0 {
entry:
  %x.addr = alloca ptr, align 8
  store ptr %x, ptr %x.addr, align 8
  call void @bdrv_graph_rdunlock_main_loop()
  ret void
}

; Function Attrs: nounwind sspstrong uwtable
define internal void @glib_autoptr_clear_GList(ptr noundef %_ptr) #0 {
entry:
  %_ptr.addr = alloca ptr, align 8
  store ptr %_ptr, ptr %_ptr.addr, align 8
  %0 = load ptr, ptr %_ptr.addr, align 8
  %tobool = icmp ne ptr %0, null
  br i1 %tobool, label %if.then, label %if.end

if.then:                                          ; preds = %entry
  %1 = load ptr, ptr %_ptr.addr, align 8
  call void @g_list_free(ptr noundef %1)
  br label %if.end

if.end:                                           ; preds = %if.then, %entry
  ret void
}

; Function Attrs: nounwind sspstrong uwtable
define internal void @glib_autoptr_clear_GraphLockableMainloop(ptr noundef %_ptr) #0 {
entry:
  %_ptr.addr = alloca ptr, align 8
  store ptr %_ptr, ptr %_ptr.addr, align 8
  %0 = load ptr, ptr %_ptr.addr, align 8
  %tobool = icmp ne ptr %0, null
  br i1 %tobool, label %if.then, label %if.end

if.then:                                          ; preds = %entry
  %1 = load ptr, ptr %_ptr.addr, align 8
  call void @graph_lockable_auto_unlock_mainloop(ptr noundef %1)
  br label %if.end

if.end:                                           ; preds = %if.then, %entry
  ret void
}

; Function Attrs: nounwind sspstrong uwtable
define internal void @glib_autoptr_cleanup_GList(ptr noundef %_ptr) #0 {
entry:
  %_ptr.addr = alloca ptr, align 8
  store ptr %_ptr, ptr %_ptr.addr, align 8
  %0 = load ptr, ptr %_ptr.addr, align 8
  %1 = load ptr, ptr %0, align 8
  call void @glib_autoptr_clear_GList(ptr noundef %1)
  ret void
}

; Function Attrs: nounwind sspstrong uwtable
define internal void @glib_autoptr_cleanup_GraphLockableMainloop(ptr noundef %_ptr) #0 {
entry:
  %_ptr.addr = alloca ptr, align 8
  store ptr %_ptr, ptr %_ptr.addr, align 8
  %0 = load ptr, ptr %_ptr.addr, align 8
  %1 = load ptr, ptr %0, align 8
  call void @glib_autoptr_clear_GraphLockableMainloop(ptr noundef %1)
  ret void
}

; Function Attrs: nounwind sspstrong uwtable
define dso_local i32 @bdrv_snapshot_find(ptr noundef %bs, ptr noundef %sn_info, ptr noundef %name) #0 {
entry:
  %retval = alloca i32, align 4
  %bs.addr = alloca ptr, align 8
  %sn_info.addr = alloca ptr, align 8
  %name.addr = alloca ptr, align 8
  %sn_tab = alloca ptr, align 8
  %sn = alloca ptr, align 8
  %nb_sns = alloca i32, align 4
  %i = alloca i32, align 4
  %ret = alloca i32, align 4
  store ptr %bs, ptr %bs.addr, align 8
  store ptr %sn_info, ptr %sn_info.addr, align 8
  store ptr %name, ptr %name.addr, align 8
  br label %do.body

do.body:                                          ; preds = %entry
  %call = call zeroext i1 @qemu_in_main_thread()
  br i1 %call, label %if.then, label %if.else

if.then:                                          ; preds = %do.body
  br label %if.end

if.else:                                          ; preds = %do.body
  call void @__assert_fail(ptr noundef @.str.6, ptr noundef @.str.7, i32 noundef 60, ptr noundef @__PRETTY_FUNCTION__.bdrv_snapshot_find) #6
  unreachable

if.end:                                           ; preds = %if.then
  br label %do.end

do.end:                                           ; preds = %if.end
  store i32 -2, ptr %ret, align 4
  %0 = load ptr, ptr %bs.addr, align 8
  %call1 = call i32 @bdrv_snapshot_list(ptr noundef %0, ptr noundef %sn_tab)
  store i32 %call1, ptr %nb_sns, align 4
  %1 = load i32, ptr %nb_sns, align 4
  %cmp = icmp slt i32 %1, 0
  br i1 %cmp, label %if.then2, label %if.end3

if.then2:                                         ; preds = %do.end
  %2 = load i32, ptr %ret, align 4
  store i32 %2, ptr %retval, align 4
  br label %return

if.end3:                                          ; preds = %do.end
  store i32 0, ptr %i, align 4
  br label %for.cond

for.cond:                                         ; preds = %for.inc, %if.end3
  %3 = load i32, ptr %i, align 4
  %4 = load i32, ptr %nb_sns, align 4
  %cmp4 = icmp slt i32 %3, %4
  br i1 %cmp4, label %for.body, label %for.end

for.body:                                         ; preds = %for.cond
  %5 = load ptr, ptr %sn_tab, align 8
  %6 = load i32, ptr %i, align 4
  %idxprom = sext i32 %6 to i64
  %arrayidx = getelementptr %struct.QEMUSnapshotInfo, ptr %5, i64 %idxprom
  store ptr %arrayidx, ptr %sn, align 8
  %7 = load ptr, ptr %sn, align 8
  %name5 = getelementptr inbounds %struct.QEMUSnapshotInfo, ptr %7, i32 0, i32 1
  %arraydecay = getelementptr inbounds [256 x i8], ptr %name5, i64 0, i64 0
  %8 = load ptr, ptr %name.addr, align 8
  %call6 = call i32 @strcmp(ptr noundef %arraydecay, ptr noundef %8) #7
  %tobool = icmp ne i32 %call6, 0
  br i1 %tobool, label %if.end8, label %if.then7

if.then7:                                         ; preds = %for.body
  %9 = load ptr, ptr %sn_info.addr, align 8
  %10 = load ptr, ptr %sn, align 8
  call void @llvm.memcpy.p0.p0.i64(ptr align 8 %9, ptr align 8 %10, i64 416, i1 false)
  store i32 0, ptr %ret, align 4
  br label %for.end

if.end8:                                          ; preds = %for.body
  br label %for.inc

for.inc:                                          ; preds = %if.end8
  %11 = load i32, ptr %i, align 4
  %inc = add i32 %11, 1
  store i32 %inc, ptr %i, align 4
  br label %for.cond, !llvm.loop !5

for.end:                                          ; preds = %if.then7, %for.cond
  %12 = load ptr, ptr %sn_tab, align 8
  call void @g_free(ptr noundef %12)
  %13 = load i32, ptr %ret, align 4
  store i32 %13, ptr %retval, align 4
  br label %return

return:                                           ; preds = %for.end, %if.then2
  %14 = load i32, ptr %retval, align 4
  ret i32 %14
}

; Function Attrs: nounwind sspstrong uwtable
define internal zeroext i1 @bdrv_all_snapshots_includes_bs(ptr noundef %bs) #0 {
entry:
  %retval = alloca i1, align 1
  %bs.addr = alloca ptr, align 8
  store ptr %bs, ptr %bs.addr, align 8
  br label %do.body

do.body:                                          ; preds = %entry
  %call = call zeroext i1 @qemu_in_main_thread()
  br i1 %call, label %if.then, label %if.else

if.then:                                          ; preds = %do.body
  br label %if.end

if.else:                                          ; preds = %do.body
  call void @__assert_fail(ptr noundef @.str.6, ptr noundef @.str.7, i32 noundef 516, ptr noundef @__PRETTY_FUNCTION__.bdrv_all_snapshots_includes_bs) #6
  unreachable

if.end:                                           ; preds = %if.then
  br label %do.end

do.end:                                           ; preds = %if.end
  call void @assert_bdrv_graph_readable()
  %0 = load ptr, ptr %bs.addr, align 8
  %call1 = call zeroext i1 @bdrv_is_inserted(ptr noundef %0)
  br i1 %call1, label %lor.lhs.false, label %if.then3

lor.lhs.false:                                    ; preds = %do.end
  %1 = load ptr, ptr %bs.addr, align 8
  %call2 = call zeroext i1 @bdrv_is_read_only(ptr noundef %1)
  br i1 %call2, label %if.then3, label %if.end4

if.then3:                                         ; preds = %lor.lhs.false, %do.end
  store i1 false, ptr %retval, align 1
  br label %return

if.end4:                                          ; preds = %lor.lhs.false
  %2 = load ptr, ptr %bs.addr, align 8
  %call5 = call zeroext i1 @bdrv_has_blk(ptr noundef %2)
  br i1 %call5, label %lor.end, label %lor.rhs

lor.rhs:                                          ; preds = %if.end4
  %3 = load ptr, ptr %bs.addr, align 8
  %parents = getelementptr inbounds %struct.BlockDriverState, ptr %3, i32 0, i32 32
  %lh_first = getelementptr inbounds %struct.anon.5, ptr %parents, i32 0, i32 0
  %4 = load ptr, ptr %lh_first, align 8
  %cmp = icmp eq ptr %4, null
  br label %lor.end

lor.end:                                          ; preds = %lor.rhs, %if.end4
  %5 = phi i1 [ true, %if.end4 ], [ %cmp, %lor.rhs ]
  store i1 %5, ptr %retval, align 1
  br label %return

return:                                           ; preds = %lor.end, %if.then3
  %6 = load i1, ptr %retval, align 1
  ret i1 %6
}

; Function Attrs: nounwind sspstrong uwtable
define internal ptr @graph_lockable_auto_lock_mainloop(ptr noundef %x) #0 {
entry:
  %x.addr = alloca ptr, align 8
  store ptr %x, ptr %x.addr, align 8
  call void @bdrv_graph_rdlock_main_loop()
  %0 = load ptr, ptr %x.addr, align 8
  ret ptr %0
}

; Function Attrs: nounwind sspstrong uwtable
define dso_local i32 @bdrv_all_delete_snapshot(ptr noundef %name, i1 noundef zeroext %has_devices, ptr noundef %devices, ptr noundef %errp) #0 {
entry:
  %retval = alloca i32, align 4
  %name.addr = alloca ptr, align 8
  %has_devices.addr = alloca i8, align 1
  %devices.addr = alloca ptr, align 8
  %errp.addr = alloca ptr, align 8
  %bdrvs = alloca ptr, align 8
  %iterbdrvs = alloca ptr, align 8
  %graph_lockable_auto9 = alloca ptr, align 8
  %.compoundliteral = alloca %struct.GraphLockableMainloop, align 1
  %cleanup.dest.slot = alloca i32, align 4
  %bs = alloca ptr, align 8
  %ctx = alloca ptr, align 8
  %sn1 = alloca %struct.QEMUSnapshotInfo, align 8
  %snapshot = alloca ptr, align 8
  %ret = alloca i32, align 4
  store ptr %name, ptr %name.addr, align 8
  %frombool = zext i1 %has_devices to i8
  store i8 %frombool, ptr %has_devices.addr, align 1
  store ptr %devices, ptr %devices.addr, align 8
  store ptr %errp, ptr %errp.addr, align 8
  store ptr null, ptr %bdrvs, align 8
  br label %do.body

do.body:                                          ; preds = %entry
  %call = call zeroext i1 @qemu_in_main_thread()
  br i1 %call, label %if.then, label %if.else

if.then:                                          ; preds = %do.body
  br label %if.end

if.else:                                          ; preds = %do.body
  call void @__assert_fail(ptr noundef @.str.6, ptr noundef @.str.7, i32 noundef 575, ptr noundef @__PRETTY_FUNCTION__.bdrv_all_delete_snapshot) #6
  unreachable

if.end:                                           ; preds = %if.then
  br label %do.cond

do.cond:                                          ; preds = %if.end
  br label %do.end

do.end:                                           ; preds = %do.cond
  %call1 = call ptr @graph_lockable_auto_lock_mainloop(ptr noundef %.compoundliteral)
  store ptr %call1, ptr %graph_lockable_auto9, align 8
  %0 = load i8, ptr %has_devices.addr, align 1
  %tobool = trunc i8 %0 to i1
  %1 = load ptr, ptr %devices.addr, align 8
  %2 = load ptr, ptr %errp.addr, align 8
  %call2 = call i32 @bdrv_all_get_snapshot_devices(i1 noundef zeroext %tobool, ptr noundef %1, ptr noundef %bdrvs, ptr noundef %2)
  %cmp = icmp slt i32 %call2, 0
  br i1 %cmp, label %if.then3, label %if.end4

if.then3:                                         ; preds = %do.end
  store i32 -1, ptr %retval, align 4
  store i32 1, ptr %cleanup.dest.slot, align 4
  br label %cleanup

if.end4:                                          ; preds = %do.end
  %3 = load ptr, ptr %bdrvs, align 8
  store ptr %3, ptr %iterbdrvs, align 8
  br label %while.cond

while.cond:                                       ; preds = %if.end19, %if.end4
  %4 = load ptr, ptr %iterbdrvs, align 8
  %tobool5 = icmp ne ptr %4, null
  br i1 %tobool5, label %while.body, label %while.end

while.body:                                       ; preds = %while.cond
  %5 = load ptr, ptr %iterbdrvs, align 8
  %data = getelementptr inbounds %struct._GList, ptr %5, i32 0, i32 0
  %6 = load ptr, ptr %data, align 8
  store ptr %6, ptr %bs, align 8
  %7 = load ptr, ptr %bs, align 8
  %call6 = call ptr @bdrv_get_aio_context(ptr noundef %7)
  store ptr %call6, ptr %ctx, align 8
  store ptr %sn1, ptr %snapshot, align 8
  store i32 0, ptr %ret, align 4
  %8 = load ptr, ptr %ctx, align 8
  call void @aio_context_acquire(ptr noundef %8)
  %9 = load ptr, ptr %devices.addr, align 8
  %tobool7 = icmp ne ptr %9, null
  br i1 %tobool7, label %land.lhs.true, label %lor.lhs.false

lor.lhs.false:                                    ; preds = %while.body
  %10 = load ptr, ptr %bs, align 8
  %call8 = call zeroext i1 @bdrv_all_snapshots_includes_bs(ptr noundef %10)
  br i1 %call8, label %land.lhs.true, label %if.end15

land.lhs.true:                                    ; preds = %lor.lhs.false, %while.body
  %11 = load ptr, ptr %bs, align 8
  %12 = load ptr, ptr %snapshot, align 8
  %13 = load ptr, ptr %name.addr, align 8
  %call9 = call i32 @bdrv_snapshot_find(ptr noundef %11, ptr noundef %12, ptr noundef %13)
  %cmp10 = icmp sge i32 %call9, 0
  br i1 %cmp10, label %if.then11, label %if.end15

if.then11:                                        ; preds = %land.lhs.true
  %14 = load ptr, ptr %bs, align 8
  %15 = load ptr, ptr %snapshot, align 8
  %id_str = getelementptr inbounds %struct.QEMUSnapshotInfo, ptr %15, i32 0, i32 0
  %arraydecay = getelementptr inbounds [128 x i8], ptr %id_str, i64 0, i64 0
  %16 = load ptr, ptr %snapshot, align 8
  %name12 = getelementptr inbounds %struct.QEMUSnapshotInfo, ptr %16, i32 0, i32 1
  %arraydecay13 = getelementptr inbounds [256 x i8], ptr %name12, i64 0, i64 0
  %17 = load ptr, ptr %errp.addr, align 8
  %call14 = call i32 @bdrv_snapshot_delete(ptr noundef %14, ptr noundef %arraydecay, ptr noundef %arraydecay13, ptr noundef %17)
  store i32 %call14, ptr %ret, align 4
  br label %if.end15

if.end15:                                         ; preds = %if.then11, %land.lhs.true, %lor.lhs.false
  %18 = load ptr, ptr %ctx, align 8
  call void @aio_context_release(ptr noundef %18)
  %19 = load i32, ptr %ret, align 4
  %cmp16 = icmp slt i32 %19, 0
  br i1 %cmp16, label %if.then17, label %if.end19

if.then17:                                        ; preds = %if.end15
  %20 = load ptr, ptr %errp.addr, align 8
  %21 = load ptr, ptr %name.addr, align 8
  %22 = load ptr, ptr %bs, align 8
  %call18 = call ptr @bdrv_get_device_or_node_name(ptr noundef %22)
  call void (ptr, ptr, ...) @error_prepend(ptr noundef %20, ptr noundef @.str.22, ptr noundef %21, ptr noundef %call18)
  store i32 -1, ptr %retval, align 4
  store i32 1, ptr %cleanup.dest.slot, align 4
  br label %cleanup

if.end19:                                         ; preds = %if.end15
  %23 = load ptr, ptr %iterbdrvs, align 8
  %next = getelementptr inbounds %struct._GList, ptr %23, i32 0, i32 1
  %24 = load ptr, ptr %next, align 8
  store ptr %24, ptr %iterbdrvs, align 8
  br label %while.cond, !llvm.loop !14

while.end:                                        ; preds = %while.cond
  store i32 0, ptr %retval, align 4
  store i32 1, ptr %cleanup.dest.slot, align 4
  br label %cleanup

cleanup:                                          ; preds = %while.end, %if.then17, %if.then3
  call void @glib_autoptr_cleanup_GraphLockableMainloop(ptr noundef %graph_lockable_auto9)
  call void @glib_autoptr_cleanup_GList(ptr noundef %bdrvs)
  %25 = load i32, ptr %retval, align 4
  ret i32 %25
}