; Function Attrs: nounwind sspstrong uwtable
define dso_local range(i32 -1, 1) i32 @bdrv_all_delete_snapshot(ptr noundef %name, i1 noundef zeroext %has_devices, ptr noundef %devices, ptr noundef %errp) local_unnamed_addr #0 {
entry:
  %sn_tab.i = alloca ptr, align 8
  %bdrvs = alloca ptr, align 8
  %sn1 = alloca %struct.QEMUSnapshotInfo, align 8
  store ptr null, ptr %bdrvs, align 8
  %call = tail call zeroext i1 @qemu_in_main_thread() #6
  br i1 %call, label %do.end, label %if.else

if.else:                                          ; preds = %entry
  tail call void @__assert_fail(ptr noundef nonnull @.str.6, ptr noundef nonnull @.str.7, i32 noundef 575, ptr noundef nonnull @__PRETTY_FUNCTION__.bdrv_all_delete_snapshot) #7
  unreachable

do.end:                                           ; preds = %entry
  tail call void @bdrv_graph_rdlock_main_loop() #6
  %call2 = call fastcc i32 @bdrv_all_get_snapshot_devices(i1 noundef zeroext %has_devices, ptr noundef %devices, ptr noundef %bdrvs, ptr noundef %errp)
  %cmp = icmp slt i32 %call2, 0
  %bdrvs.val.pre = load ptr, ptr %bdrvs, align 8
  br i1 %cmp, label %glib_autoptr_cleanup_GraphLockableMainloop.exit, label %while.cond.preheader

while.cond.preheader:                             ; preds = %do.end
  %tobool5.not34 = icmp eq ptr %bdrvs.val.pre, null
  br i1 %tobool5.not34, label %glib_autoptr_cleanup_GraphLockableMainloop.exit.thread, label %while.body.lr.ph

glib_autoptr_cleanup_GraphLockableMainloop.exit.thread: ; preds = %while.cond.preheader
  tail call void @bdrv_graph_rdunlock_main_loop() #6
  br label %glib_autoptr_cleanup_GList.exit

while.body.lr.ph:                                 ; preds = %while.cond.preheader
  %tobool7.not = icmp eq ptr %devices, null
  %name12 = getelementptr inbounds nuw i8, ptr %sn1, i64 128
  br label %while.body

while.body:                                       ; preds = %while.body.lr.ph, %if.end19
  %iterbdrvs.035 = phi ptr [ %bdrvs.val.pre, %while.body.lr.ph ], [ %iterbdrvs.0, %if.end19 ]
  %0 = load ptr, ptr %iterbdrvs.035, align 8
  %call6 = call ptr @bdrv_get_aio_context(ptr noundef %0) #6
  call void @aio_context_acquire(ptr noundef %call6) #6
  br i1 %tobool7.not, label %lor.lhs.false, label %land.lhs.true

lor.lhs.false:                                    ; preds = %while.body
  %call.i = call zeroext i1 @qemu_in_main_thread() #6
  br i1 %call.i, label %do.end.i, label %if.else.i

if.else.i:                                        ; preds = %lor.lhs.false
  call void @__assert_fail(ptr noundef nonnull @.str.6, ptr noundef nonnull @.str.7, i32 noundef 516, ptr noundef nonnull @__PRETTY_FUNCTION__.bdrv_all_snapshots_includes_bs) #7
  unreachable

do.end.i:                                         ; preds = %lor.lhs.false
  call void @assert_bdrv_graph_readable() #6
  %call1.i = call zeroext i1 @bdrv_is_inserted(ptr noundef %0) #6
  br i1 %call1.i, label %lor.lhs.false.i, label %if.end19.critedge

lor.lhs.false.i:                                  ; preds = %do.end.i
  %call2.i = call zeroext i1 @bdrv_is_read_only(ptr noundef %0) #6
  br i1 %call2.i, label %if.end19.critedge, label %if.end4.i

if.end4.i:                                        ; preds = %lor.lhs.false.i
  %call5.i = call zeroext i1 @bdrv_has_blk(ptr noundef %0) #6
  br i1 %call5.i, label %land.lhs.true, label %bdrv_all_snapshots_includes_bs.exit

bdrv_all_snapshots_includes_bs.exit:              ; preds = %if.end4.i
  %parents.i = getelementptr inbounds nuw i8, ptr %0, i64 16848
  %1 = load ptr, ptr %parents.i, align 8
  %cmp.i = icmp eq ptr %1, null
  br i1 %cmp.i, label %land.lhs.true, label %if.end19.critedge

land.lhs.true:                                    ; preds = %if.end4.i, %bdrv_all_snapshots_includes_bs.exit, %while.body
  call void @llvm.lifetime.start.p0(i64 8, ptr nonnull %sn_tab.i)
  %call.i14 = call zeroext i1 @qemu_in_main_thread() #6
  br i1 %call.i14, label %do.end.i16, label %if.else.i15

if.else.i15:                                      ; preds = %land.lhs.true
  call void @__assert_fail(ptr noundef nonnull @.str.6, ptr noundef nonnull @.str.7, i32 noundef 60, ptr noundef nonnull @__PRETTY_FUNCTION__.bdrv_snapshot_find) #7
  unreachable

do.end.i16:                                       ; preds = %land.lhs.true
  %call1.i17 = call i32 @bdrv_snapshot_list(ptr noundef %0, ptr noundef nonnull %sn_tab.i)
  %cmp.i18 = icmp slt i32 %call1.i17, 0
  br i1 %cmp.i18, label %if.end19.critedge.sink.split, label %for.cond.preheader.i

for.cond.preheader.i:                             ; preds = %do.end.i16
  %cmp46.not.i = icmp eq i32 %call1.i17, 0
  %.pre.i = load ptr, ptr %sn_tab.i, align 8
  br i1 %cmp46.not.i, label %bdrv_snapshot_find.exit.thread27, label %for.body.lr.ph.i

for.body.lr.ph.i:                                 ; preds = %for.cond.preheader.i
  %wide.trip.count.i = zext nneg i32 %call1.i17 to i64
  br label %for.body.i

for.cond.i:                                       ; preds = %for.body.i
  %indvars.iv.next.i = add nuw nsw i64 %indvars.iv.i, 1
  %exitcond.not.i = icmp eq i64 %indvars.iv.next.i, %wide.trip.count.i
  br i1 %exitcond.not.i, label %bdrv_snapshot_find.exit.thread27, label %for.body.i, !llvm.loop !5

for.body.i:                                       ; preds = %for.cond.i, %for.body.lr.ph.i
  %indvars.iv.i = phi i64 [ 0, %for.body.lr.ph.i ], [ %indvars.iv.next.i, %for.cond.i ]
  %arrayidx.i = getelementptr %struct.QEMUSnapshotInfo, ptr %.pre.i, i64 %indvars.iv.i
  %name5.i = getelementptr inbounds nuw i8, ptr %arrayidx.i, i64 128
  %call6.i = call i32 @strcmp(ptr noundef nonnull dereferenceable(1) %name5.i, ptr noundef nonnull readonly dereferenceable(1) %name) #8
  %tobool.not.i = icmp eq i32 %call6.i, 0
  br i1 %tobool.not.i, label %if.then11, label %for.cond.i

bdrv_snapshot_find.exit.thread27:                 ; preds = %for.cond.i, %for.cond.preheader.i
  call void @g_free(ptr noundef %.pre.i) #6
  br label %if.end19.critedge.sink.split

if.then11:                                        ; preds = %for.body.i
  call void @llvm.memcpy.p0.p0.i64(ptr noundef nonnull align 8 dereferenceable(416) %sn1, ptr noundef nonnull align 8 dereferenceable(416) %arrayidx.i, i64 416, i1 false)
  call void @g_free(ptr noundef %.pre.i) #6
  call void @llvm.lifetime.end.p0(i64 8, ptr nonnull %sn_tab.i)
  %call14 = call i32 @bdrv_snapshot_delete(ptr noundef %0, ptr noundef nonnull %sn1, ptr noundef nonnull %name12, ptr noundef %errp)
  %2 = icmp slt i32 %call14, 0
  call void @aio_context_release(ptr noundef %call6) #6
  br i1 %2, label %if.then17, label %if.end19

if.then17:                                        ; preds = %if.then11
  %call18 = call ptr @bdrv_get_device_or_node_name(ptr noundef %0) #6
  call void (ptr, ptr, ...) @error_prepend(ptr noundef %errp, ptr noundef nonnull @.str.22, ptr noundef nonnull %name, ptr noundef %call18) #6
  br label %glib_autoptr_cleanup_GraphLockableMainloop.exit

if.end19.critedge.sink.split:                     ; preds = %do.end.i16, %bdrv_snapshot_find.exit.thread27
  call void @llvm.lifetime.end.p0(i64 8, ptr nonnull %sn_tab.i)
  br label %if.end19.critedge

if.end19.critedge:                                ; preds = %if.end19.critedge.sink.split, %do.end.i, %lor.lhs.false.i, %bdrv_all_snapshots_includes_bs.exit
  call void @aio_context_release(ptr noundef %call6) #6
  br label %if.end19

if.end19:                                         ; preds = %if.end19.critedge, %if.then11
  %next = getelementptr inbounds nuw i8, ptr %iterbdrvs.035, i64 8
  %iterbdrvs.0 = load ptr, ptr %next, align 8
  %tobool5.not = icmp eq ptr %iterbdrvs.0, null
  br i1 %tobool5.not, label %glib_autoptr_cleanup_GraphLockableMainloop.exit, label %while.body, !llvm.loop !14

glib_autoptr_cleanup_GraphLockableMainloop.exit:  ; preds = %if.end19, %do.end, %if.then17
  %retval.0 = phi i32 [ -1, %if.then17 ], [ -1, %do.end ], [ 0, %if.end19 ]
  call void @bdrv_graph_rdunlock_main_loop() #6
  %tobool.not.i.i20 = icmp eq ptr %bdrvs.val.pre, null
  br i1 %tobool.not.i.i20, label %glib_autoptr_cleanup_GList.exit, label %if.then.i.i21

if.then.i.i21:                                    ; preds = %glib_autoptr_cleanup_GraphLockableMainloop.exit
  call void @g_list_free(ptr noundef nonnull %bdrvs.val.pre) #6
  br label %glib_autoptr_cleanup_GList.exit

glib_autoptr_cleanup_GList.exit:                  ; preds = %glib_autoptr_cleanup_GraphLockableMainloop.exit.thread, %glib_autoptr_cleanup_GraphLockableMainloop.exit, %if.then.i.i21
  %retval.042 = phi i32 [ 0, %glib_autoptr_cleanup_GraphLockableMainloop.exit.thread ], [ %retval.0, %glib_autoptr_cleanup_GraphLockableMainloop.exit ], [ %retval.0, %if.then.i.i21 ]
  ret i32 %retval.042
}